target datalayout = "e-m:e-p270:32:32-p271:32:32-p272:64:64-i64:64-i128:128-f80:128-n8:16:32:64-S128"
target triple = "x86_64-unknown-linux-gnu"

%"class.grpc_core::PolymorphicRefCount" = type { ptr }
%"class.grpc_core::RefCount" = type { %"struct.std::atomic" }
%"struct.std::atomic" = type { %"struct.std::__atomic_base" }
%"struct.std::__atomic_base" = type { i64 }
%struct.grpc_closure = type { %union.anon, ptr, ptr, %union.anon.2 }
%union.anon = type { ptr }
%union.anon.2 = type { i64 }
%struct.grpc_transport_stream_op_batch = type { ptr, ptr, i8, %struct.grpc_handler_private_op_data }
%struct.grpc_handler_private_op_data = type { ptr, %struct.grpc_closure }
%"class.grpc_core::RetryFilter::LegacyCallData::CallAttempt::BatchData" = type { %"class.grpc_core::RefCounted.128", ptr, %struct.grpc_transport_stream_op_batch, %struct.grpc_closure }
%"class.grpc_core::RefCounted.128" = type { %"class.grpc_core::PolymorphicRefCount", %"class.grpc_core::RefCount" }

@.str.19 = private unnamed_addr constant [35 x i8] c"start replay batch on call attempt\00", align 1

; Function Attrs: mustprogress nounwind uwtable
define linkonce_odr noundef ptr @_ZN9grpc_core11RetryFilter14LegacyCallData11CallAttempt9BatchData5batchEv(ptr noundef nonnull align 8 dereferenceable(120) %this) #5 comdat align 2 {
entry:
  %this.addr = alloca ptr, align 8
  store ptr %this, ptr %this.addr, align 8
  %this1 = load ptr, ptr %this.addr, align 8
  %batch_ = getelementptr inbounds %"class.grpc_core::RetryFilter::LegacyCallData::CallAttempt::BatchData", ptr %this1, i32 0, i32 2
  ret ptr %batch_
}

; Function Attrs: mustprogress uwtable
define void @_ZN9grpc_core11RetryFilter14LegacyCallData11CallAttempt19AddRetriableBatchesEPNS_23CallCombinerClosureListE(ptr noundef nonnull align 8 dereferenceable(3105) %this, ptr noundef %closures) #4 align 2 {
entry:
  %this.addr = alloca ptr, align 8
  %closures.addr = alloca ptr, align 8
  %replay_batch_data = alloca ptr, align 8
  store ptr %this, ptr %this.addr, align 8
  store ptr %closures, ptr %closures.addr, align 8
  %this1 = load ptr, ptr %this.addr, align 8
  %call = call noundef ptr @_ZN9grpc_core11RetryFilter14LegacyCallData11CallAttempt25MaybeCreateBatchForReplayEv(ptr noundef nonnull align 8 dereferenceable(3105) %this1)
  store ptr %call, ptr %replay_batch_data, align 8
  %0 = load ptr, ptr %replay_batch_data, align 8
  %cmp = icmp ne ptr %0, null
  br i1 %cmp, label %if.then, label %if.end

if.then:                                          ; preds = %entry
  %1 = load ptr, ptr %replay_batch_data, align 8
  %call2 = call noundef ptr @_ZN9grpc_core11RetryFilter14LegacyCallData11CallAttempt9BatchData5batchEv(ptr noundef nonnull align 8 dereferenceable(120) %1)
  %2 = load ptr, ptr %closures.addr, align 8
  call void @_ZN9grpc_core11RetryFilter14LegacyCallData11CallAttempt18AddClosureForBatchEP30grpc_transport_stream_op_batchPKcPNS_23CallCombinerClosureListE(ptr noundef nonnull align 8 dereferenceable(3105) %this1, ptr noundef %call2, ptr noundef @.str.19, ptr noundef %2)
  br label %if.end

if.end:                                           ; preds = %if.then, %entry
  %3 = load ptr, ptr %closures.addr, align 8
  call void @_ZN9grpc_core11RetryFilter14LegacyCallData11CallAttempt27AddBatchesForPendingBatchesEPNS_23CallCombinerClosureListE(ptr noundef nonnull align 8 dereferenceable(3105) %this1, ptr noundef %3)
  ret void
}