; Function Attrs: mustprogress uwtable
define void @_ZN9grpc_core11RetryFilter14LegacyCallData11CallAttempt19AddRetriableBatchesEPNS_23CallCombinerClosureListE(ptr noundef nonnull align 8 dereferenceable(3105) %this, ptr noundef %closures) local_unnamed_addr #3 align 2 {
entry:
  %call = tail call noundef ptr @_ZN9grpc_core11RetryFilter14LegacyCallData11CallAttempt25MaybeCreateBatchForReplayEv(ptr noundef nonnull align 8 dereferenceable(3105) %this)
  %cmp.not = icmp eq ptr %call, null
  br i1 %cmp.not, label %if.end, label %if.then

if.then:                                          ; preds = %entry
  %batch_.i = getelementptr inbounds i8, ptr %call, i64 24
  tail call void @_ZN9grpc_core11RetryFilter14LegacyCallData11CallAttempt18AddClosureForBatchEP30grpc_transport_stream_op_batchPKcPNS_23CallCombinerClosureListE(ptr noundef nonnull align 8 dereferenceable(3105) %this, ptr noundef nonnull %batch_.i, ptr noundef nonnull @.str.19, ptr noundef %closures)
  br label %if.end

if.end:                                           ; preds = %if.then, %entry
  tail call void @_ZN9grpc_core11RetryFilter14LegacyCallData11CallAttempt27AddBatchesForPendingBatchesEPNS_23CallCombinerClosureListE(ptr noundef nonnull align 8 dereferenceable(3105) %this, ptr noundef %closures)
  ret void
}